target datalayout = "e-m:e-p270:32:32-p271:32:32-p272:64:64-i64:64-i128:128-f80:128-n8:16:32:64-S128"
target triple = "x86_64-pc-linux-gnu"

%struct.tds_conv_info_t = type { ptr, i32, i32, i32, i32, i32, i32, i32, i32, i8 }

@hf_tds_info_length = internal global i32 0, align 4
@hf_tds_info_number = internal global i32 0, align 4
@hf_tds_info_state = internal global i32 0, align 4
@hf_tds_info_class = internal global i32 0, align 4
@hf_tds_info_msgtext_length = internal global i32 0, align 4
@hf_tds_info_msgtext = internal global i32 0, align 4
@hf_tds_info_servername_length = internal global i32 0, align 4
@hf_tds_info_servername = internal global i32 0, align 4
@hf_tds_info_procname_length = internal global i32 0, align 4
@hf_tds_info_procname = internal global i32 0, align 4
@hf_tds_info_linenumber_16 = internal global i32 0, align 4
@hf_tds_info_linenumber_32 = internal global i32 0, align 4
@tds_protocol_type = internal global i32 65535, align 4

; Function Attrs: nounwind null_pointer_is_valid sspstrong uwtable
define internal i32 @tds_get_char_encoding(ptr noundef %0) #5 {
  %2 = alloca i32, align 4
  %3 = alloca ptr, align 8
  store ptr %0, ptr %3, align 8
  %4 = load ptr, ptr %3, align 8
  %5 = getelementptr inbounds nuw %struct.tds_conv_info_t, ptr %4, i32 0, i32 6
  %6 = load i32, ptr %5, align 4
  switch i32 %6, label %10 [
    i32 6, label %7
    i32 7, label %8
    i32 120, label %9
  ]

7:                                                ; preds = %1
  store i32 0, ptr %2, align 4
  br label %11

8:                                                ; preds = %1
  store i32 46, ptr %2, align 4
  br label %11

9:                                                ; preds = %1
  store i32 -2147483644, ptr %2, align 4
  br label %11

10:                                               ; preds = %1
  store i32 0, ptr %2, align 4
  br label %11

11:                                               ; preds = %10, %9, %8, %7
  %12 = load i32, ptr %2, align 4
  ret i32 %12
}

; Function Attrs: nounwind null_pointer_is_valid sspstrong uwtable
define internal i32 @tds_char_encoding_is_two_byte(ptr noundef %0) #5 {
  %2 = alloca ptr, align 8
  store ptr %0, ptr %2, align 8
  %3 = load ptr, ptr %2, align 8
  %4 = getelementptr inbounds nuw %struct.tds_conv_info_t, ptr %3, i32 0, i32 6
  %5 = load i32, ptr %4, align 4
  %6 = icmp eq i32 %5, 120
  %7 = zext i1 %6 to i32
  ret i32 %7
}

; Function Attrs: nounwind null_pointer_is_valid sspstrong uwtable
define internal i32 @tds_get_int4_encoding(ptr noundef %0) #5 {
  %2 = alloca ptr, align 8
  store ptr %0, ptr %2, align 8
  %3 = load ptr, ptr %2, align 8
  %4 = getelementptr inbounds nuw %struct.tds_conv_info_t, ptr %3, i32 0, i32 5
  %5 = load i32, ptr %4, align 8
  %6 = icmp eq i32 %5, 0
  %7 = select i1 %6, i32 0, i32 -2147483648
  ret i32 %7
}

; Function Attrs: nounwind null_pointer_is_valid sspstrong uwtable
define internal i32 @tds_get_int2_encoding(ptr noundef %0) #5 {
  %2 = alloca ptr, align 8
  store ptr %0, ptr %2, align 8
  %3 = load ptr, ptr %2, align 8
  %4 = getelementptr inbounds nuw %struct.tds_conv_info_t, ptr %3, i32 0, i32 4
  %5 = load i32, ptr %4, align 4
  %6 = icmp eq i32 %5, 2
  %7 = select i1 %6, i32 0, i32 -2147483648
  ret i32 %7
}

; Function Attrs: null_pointer_is_valid sspstrong uwtable
define internal i32 @dissect_tds_info_token(ptr noundef %0, i32 noundef %1, ptr noundef %2, ptr noundef %3) #0 {
  %5 = alloca ptr, align 8
  %6 = alloca i32, align 4
  %7 = alloca ptr, align 8
  %8 = alloca ptr, align 8
  %9 = alloca i32, align 4
  %10 = alloca i32, align 4
  %11 = alloca i32, align 4
  %12 = alloca i32, align 4
  store ptr %0, ptr %5, align 8
  store i32 %1, ptr %6, align 4
  store ptr %2, ptr %7, align 8
  store ptr %3, ptr %8, align 8
  call void @llvm.lifetime.start.p0(i64 4, ptr %9) #11
  %13 = load i32, ptr %6, align 4
  store i32 %13, ptr %9, align 4
  call void @llvm.lifetime.start.p0(i64 4, ptr %10) #11
  call void @llvm.lifetime.start.p0(i64 4, ptr %11) #11
  call void @llvm.lifetime.start.p0(i64 4, ptr %12) #11
  %14 = load ptr, ptr %7, align 8
  %15 = load i32, ptr @hf_tds_info_length, align 4
  %16 = load ptr, ptr %5, align 8
  %17 = load i32, ptr %9, align 4
  %18 = load ptr, ptr %8, align 8
  %19 = call i32 @tds_get_int2_encoding(ptr noundef %18)
  %20 = call ptr @proto_tree_add_item(ptr noundef %14, i32 noundef %15, ptr noundef %16, i32 noundef %17, i32 noundef 2, i32 noundef %19)
  %21 = load i32, ptr %9, align 4
  %22 = add i32 %21, 2
  store i32 %22, ptr %9, align 4
  %23 = load ptr, ptr %7, align 8
  %24 = load i32, ptr @hf_tds_info_number, align 4
  %25 = load ptr, ptr %5, align 8
  %26 = load i32, ptr %9, align 4
  %27 = load ptr, ptr %8, align 8
  %28 = call i32 @tds_get_int4_encoding(ptr noundef %27)
  %29 = call ptr @proto_tree_add_item(ptr noundef %23, i32 noundef %24, ptr noundef %25, i32 noundef %26, i32 noundef 4, i32 noundef %28)
  %30 = load i32, ptr %9, align 4
  %31 = add i32 %30, 4
  store i32 %31, ptr %9, align 4
  %32 = load ptr, ptr %7, align 8
  %33 = load i32, ptr @hf_tds_info_state, align 4
  %34 = load ptr, ptr %5, align 8
  %35 = load i32, ptr %9, align 4
  %36 = call ptr @proto_tree_add_item(ptr noundef %32, i32 noundef %33, ptr noundef %34, i32 noundef %35, i32 noundef 1, i32 noundef 0)
  %37 = load i32, ptr %9, align 4
  %38 = add i32 %37, 1
  store i32 %38, ptr %9, align 4
  %39 = load ptr, ptr %7, align 8
  %40 = load i32, ptr @hf_tds_info_class, align 4
  %41 = load ptr, ptr %5, align 8
  %42 = load i32, ptr %9, align 4
  %43 = call ptr @proto_tree_add_item(ptr noundef %39, i32 noundef %40, ptr noundef %41, i32 noundef %42, i32 noundef 1, i32 noundef 0)
  %44 = load i32, ptr %9, align 4
  %45 = add i32 %44, 1
  store i32 %45, ptr %9, align 4
  %46 = load ptr, ptr %7, align 8
  %47 = load i32, ptr @hf_tds_info_msgtext_length, align 4
  %48 = load ptr, ptr %5, align 8
  %49 = load i32, ptr %9, align 4
  %50 = load ptr, ptr %8, align 8
  %51 = call i32 @tds_get_int2_encoding(ptr noundef %50)
  %52 = call ptr @proto_tree_add_item_ret_uint(ptr noundef %46, i32 noundef %47, ptr noundef %48, i32 noundef %49, i32 noundef 2, i32 noundef %51, ptr noundef %10)
  %53 = load i32, ptr %9, align 4
  %54 = add i32 %53, 2
  store i32 %54, ptr %9, align 4
  %55 = load ptr, ptr %8, align 8
  %56 = call i32 @tds_char_encoding_is_two_byte(ptr noundef %55)
  %57 = icmp ne i32 %56, 0
  br i1 %57, label %58, label %61

58:                                               ; preds = %4
  %59 = load i32, ptr %10, align 4
  %60 = mul i32 %59, 2
  store i32 %60, ptr %10, align 4
  br label %61

61:                                               ; preds = %58, %4
  %62 = load ptr, ptr %7, align 8
  %63 = load i32, ptr @hf_tds_info_msgtext, align 4
  %64 = load ptr, ptr %5, align 8
  %65 = load i32, ptr %9, align 4
  %66 = load i32, ptr %10, align 4
  %67 = load ptr, ptr %8, align 8
  %68 = call i32 @tds_get_char_encoding(ptr noundef %67)
  %69 = call ptr @proto_tree_add_item(ptr noundef %62, i32 noundef %63, ptr noundef %64, i32 noundef %65, i32 noundef %66, i32 noundef %68)
  %70 = load i32, ptr %10, align 4
  %71 = load i32, ptr %9, align 4
  %72 = add i32 %71, %70
  store i32 %72, ptr %9, align 4
  %73 = load ptr, ptr %7, align 8
  %74 = load i32, ptr @hf_tds_info_servername_length, align 4
  %75 = load ptr, ptr %5, align 8
  %76 = load i32, ptr %9, align 4
  %77 = call ptr @proto_tree_add_item_ret_uint(ptr noundef %73, i32 noundef %74, ptr noundef %75, i32 noundef %76, i32 noundef 1, i32 noundef 0, ptr noundef %11)
  %78 = load i32, ptr %9, align 4
  %79 = add i32 %78, 1
  store i32 %79, ptr %9, align 4
  %80 = load i32, ptr %11, align 4
  %81 = icmp ne i32 %80, 0
  br i1 %81, label %82, label %101

82:                                               ; preds = %61
  %83 = load ptr, ptr %8, align 8
  %84 = call i32 @tds_char_encoding_is_two_byte(ptr noundef %83)
  %85 = icmp ne i32 %84, 0
  br i1 %85, label %86, label %89

86:                                               ; preds = %82
  %87 = load i32, ptr %11, align 4
  %88 = mul i32 %87, 2
  store i32 %88, ptr %11, align 4
  br label %89

89:                                               ; preds = %86, %82
  %90 = load ptr, ptr %7, align 8
  %91 = load i32, ptr @hf_tds_info_servername, align 4
  %92 = load ptr, ptr %5, align 8
  %93 = load i32, ptr %9, align 4
  %94 = load i32, ptr %11, align 4
  %95 = load ptr, ptr %8, align 8
  %96 = call i32 @tds_get_char_encoding(ptr noundef %95)
  %97 = call ptr @proto_tree_add_item(ptr noundef %90, i32 noundef %91, ptr noundef %92, i32 noundef %93, i32 noundef %94, i32 noundef %96)
  %98 = load i32, ptr %11, align 4
  %99 = load i32, ptr %9, align 4
  %100 = add i32 %99, %98
  store i32 %100, ptr %9, align 4
  br label %101

101:                                              ; preds = %89, %61
  %102 = load ptr, ptr %7, align 8
  %103 = load i32, ptr @hf_tds_info_procname_length, align 4
  %104 = load ptr, ptr %5, align 8
  %105 = load i32, ptr %9, align 4
  %106 = call ptr @proto_tree_add_item_ret_uint(ptr noundef %102, i32 noundef %103, ptr noundef %104, i32 noundef %105, i32 noundef 1, i32 noundef 0, ptr noundef %12)
  %107 = load i32, ptr %9, align 4
  %108 = add i32 %107, 1
  store i32 %108, ptr %9, align 4
  %109 = load i32, ptr %12, align 4
  %110 = icmp ne i32 %109, 0
  br i1 %110, label %111, label %130

111:                                              ; preds = %101
  %112 = load ptr, ptr %8, align 8
  %113 = call i32 @tds_char_encoding_is_two_byte(ptr noundef %112)
  %114 = icmp ne i32 %113, 0
  br i1 %114, label %115, label %118

115:                                              ; preds = %111
  %116 = load i32, ptr %12, align 4
  %117 = mul i32 %116, 2
  store i32 %117, ptr %12, align 4
  br label %118

118:                                              ; preds = %115, %111
  %119 = load ptr, ptr %7, align 8
  %120 = load i32, ptr @hf_tds_info_procname, align 4
  %121 = load ptr, ptr %5, align 8
  %122 = load i32, ptr %9, align 4
  %123 = load i32, ptr %12, align 4
  %124 = load ptr, ptr %8, align 8
  %125 = call i32 @tds_get_char_encoding(ptr noundef %124)
  %126 = call ptr @proto_tree_add_item(ptr noundef %119, i32 noundef %120, ptr noundef %121, i32 noundef %122, i32 noundef %123, i32 noundef %125)
  %127 = load i32, ptr %12, align 4
  %128 = load i32, ptr %9, align 4
  %129 = add i32 %128, %127
  store i32 %129, ptr %9, align 4
  br label %130

130:                                              ; preds = %118, %101
  %131 = load i32, ptr @tds_protocol_type, align 4
  %132 = icmp eq i32 %131, 65535
  br i1 %132, label %133, label %138

133:                                              ; preds = %130
  %134 = load ptr, ptr %8, align 8
  %135 = getelementptr inbounds nuw %struct.tds_conv_info_t, ptr %134, i32 0, i32 1
  %136 = load i32, ptr %135, align 8
  %137 = icmp sle i32 %136, 28928
  br i1 %137, label %141, label %151

138:                                              ; preds = %130
  %139 = load i32, ptr @tds_protocol_type, align 4
  %140 = icmp sle i32 %139, 28928
  br i1 %140, label %141, label %151

141:                                              ; preds = %138, %133
  %142 = load ptr, ptr %7, align 8
  %143 = load i32, ptr @hf_tds_info_linenumber_16, align 4
  %144 = load ptr, ptr %5, align 8
  %145 = load i32, ptr %9, align 4
  %146 = load ptr, ptr %8, align 8
  %147 = call i32 @tds_get_int2_encoding(ptr noundef %146)
  %148 = call ptr @proto_tree_add_item(ptr noundef %142, i32 noundef %143, ptr noundef %144, i32 noundef %145, i32 noundef 2, i32 noundef %147)
  %149 = load i32, ptr %9, align 4
  %150 = add i32 %149, 2
  store i32 %150, ptr %9, align 4
  br label %161

151:                                              ; preds = %138, %133
  %152 = load ptr, ptr %7, align 8
  %153 = load i32, ptr @hf_tds_info_linenumber_32, align 4
  %154 = load ptr, ptr %5, align 8
  %155 = load i32, ptr %9, align 4
  %156 = load ptr, ptr %8, align 8
  %157 = call i32 @tds_get_int4_encoding(ptr noundef %156)
  %158 = call ptr @proto_tree_add_item(ptr noundef %152, i32 noundef %153, ptr noundef %154, i32 noundef %155, i32 noundef 4, i32 noundef %157)
  %159 = load i32, ptr %9, align 4
  %160 = add i32 %159, 4
  store i32 %160, ptr %9, align 4
  br label %161

161:                                              ; preds = %151, %141
  %162 = load i32, ptr %9, align 4
  %163 = load i32, ptr %6, align 4
  %164 = sub i32 %162, %163
  call void @llvm.lifetime.end.p0(i64 4, ptr %12) #11
  call void @llvm.lifetime.end.p0(i64 4, ptr %11) #11
  call void @llvm.lifetime.end.p0(i64 4, ptr %10) #11
  call void @llvm.lifetime.end.p0(i64 4, ptr %9) #11
  ret i32 %164
}