; Function Attrs: null_pointer_is_valid sspstrong uwtable
define internal fastcc i32 @dissect_tds_info_token(ptr noundef nonnull %0, i32 noundef %1, ptr noundef %2, ptr noundef readonly captures(none) %3) unnamed_addr #0 {
  %5 = alloca i32, align 4
  %6 = alloca i32, align 4
  %7 = alloca i32, align 4
  call void @llvm.lifetime.start.p0(i64 4, ptr nonnull %5) #13
  call void @llvm.lifetime.start.p0(i64 4, ptr nonnull %6) #13
  call void @llvm.lifetime.start.p0(i64 4, ptr nonnull %7) #13
  %8 = load i32, ptr @hf_tds_info_length, align 4
  %9 = getelementptr i8, ptr %3, i64 20
  %.val68 = load i32, ptr %9, align 4
  %10 = icmp eq i32 %.val68, 2
  %11 = select i1 %10, i32 0, i32 -2147483648
  %12 = tail call ptr @proto_tree_add_item(ptr noundef %2, i32 noundef %8, ptr noundef nonnull %0, i32 noundef %1, i32 noundef 2, i32 noundef %11)
  %13 = add i32 %1, 2
  %14 = load i32, ptr @hf_tds_info_number, align 4
  %15 = getelementptr i8, ptr %3, i64 24
  %.val70 = load i32, ptr %15, align 8
  %16 = icmp eq i32 %.val70, 0
  %17 = select i1 %16, i32 0, i32 -2147483648
  %18 = tail call ptr @proto_tree_add_item(ptr noundef %2, i32 noundef %14, ptr noundef nonnull %0, i32 noundef %13, i32 noundef 4, i32 noundef %17)
  %19 = add i32 %1, 6
  %20 = load i32, ptr @hf_tds_info_state, align 4
  %21 = tail call ptr @proto_tree_add_item(ptr noundef %2, i32 noundef %20, ptr noundef nonnull %0, i32 noundef %19, i32 noundef 1, i32 noundef 0)
  %22 = add i32 %1, 7
  %23 = load i32, ptr @hf_tds_info_class, align 4
  %24 = tail call ptr @proto_tree_add_item(ptr noundef %2, i32 noundef %23, ptr noundef nonnull %0, i32 noundef %22, i32 noundef 1, i32 noundef 0)
  %25 = add i32 %1, 8
  %26 = load i32, ptr @hf_tds_info_msgtext_length, align 4
  %.val67 = load i32, ptr %9, align 4
  %27 = icmp eq i32 %.val67, 2
  %28 = select i1 %27, i32 0, i32 -2147483648
  %29 = call ptr @proto_tree_add_item_ret_uint(ptr noundef %2, i32 noundef %26, ptr noundef nonnull %0, i32 noundef %25, i32 noundef 2, i32 noundef %28, ptr noundef nonnull %5)
  %30 = add i32 %1, 10
  %31 = getelementptr i8, ptr %3, i64 28
  %.val74 = load i32, ptr %31, align 4
  %.not = icmp eq i32 %.val74, 120
  %.pre = load i32, ptr %5, align 4
  br i1 %.not, label %32, label %34

32:                                               ; preds = %4
  %33 = shl i32 %.pre, 1
  store i32 %33, ptr %5, align 4
  br label %34

34:                                               ; preds = %32, %4
  %35 = phi i32 [ %33, %32 ], [ %.pre, %4 ]
  %36 = load i32, ptr @hf_tds_info_msgtext, align 4
  %switch.selectcmp.i = icmp eq i32 %.val74, 7
  %switch.select.i = select i1 %switch.selectcmp.i, i32 46, i32 0
  %switch.select2.i = select i1 %.not, i32 -2147483644, i32 %switch.select.i
  %37 = call ptr @proto_tree_add_item(ptr noundef %2, i32 noundef %36, ptr noundef nonnull %0, i32 noundef %30, i32 noundef %35, i32 noundef %switch.select2.i)
  %38 = load i32, ptr %5, align 4
  %39 = add i32 %38, %30
  %40 = load i32, ptr @hf_tds_info_servername_length, align 4
  %41 = call ptr @proto_tree_add_item_ret_uint(ptr noundef %2, i32 noundef %40, ptr noundef nonnull %0, i32 noundef %39, i32 noundef 1, i32 noundef 0, ptr noundef nonnull %6)
  %42 = add i32 %39, 1
  %43 = load i32, ptr %6, align 4
  %.not63 = icmp eq i32 %43, 0
  br i1 %.not63, label %53, label %44

44:                                               ; preds = %34
  %.val75 = load i32, ptr %31, align 4
  %.not85 = icmp eq i32 %.val75, 120
  br i1 %.not85, label %45, label %47

45:                                               ; preds = %44
  %46 = shl i32 %43, 1
  store i32 %46, ptr %6, align 4
  br label %47

47:                                               ; preds = %45, %44
  %48 = phi i32 [ %46, %45 ], [ %43, %44 ]
  %49 = load i32, ptr @hf_tds_info_servername, align 4
  %switch.selectcmp.i77 = icmp eq i32 %.val75, 7
  %switch.select.i78 = select i1 %switch.selectcmp.i77, i32 46, i32 0
  %switch.select2.i80 = select i1 %.not85, i32 -2147483644, i32 %switch.select.i78
  %50 = call ptr @proto_tree_add_item(ptr noundef %2, i32 noundef %49, ptr noundef nonnull %0, i32 noundef %42, i32 noundef %48, i32 noundef %switch.select2.i80)
  %51 = load i32, ptr %6, align 4
  %52 = add i32 %51, %42
  br label %53

53:                                               ; preds = %47, %34
  %.0 = phi i32 [ %52, %47 ], [ %42, %34 ]
  %54 = load i32, ptr @hf_tds_info_procname_length, align 4
  %55 = call ptr @proto_tree_add_item_ret_uint(ptr noundef %2, i32 noundef %54, ptr noundef nonnull %0, i32 noundef %.0, i32 noundef 1, i32 noundef 0, ptr noundef nonnull %7)
  %56 = add i32 %.0, 1
  %57 = load i32, ptr %7, align 4
  %.not65 = icmp eq i32 %57, 0
  br i1 %.not65, label %67, label %58

58:                                               ; preds = %53
  %.val76 = load i32, ptr %31, align 4
  %.not86 = icmp eq i32 %.val76, 120
  br i1 %.not86, label %59, label %61

59:                                               ; preds = %58
  %60 = shl i32 %57, 1
  store i32 %60, ptr %7, align 4
  br label %61

61:                                               ; preds = %59, %58
  %62 = phi i32 [ %60, %59 ], [ %57, %58 ]
  %63 = load i32, ptr @hf_tds_info_procname, align 4
  %switch.selectcmp.i81 = icmp eq i32 %.val76, 7
  %switch.select.i82 = select i1 %switch.selectcmp.i81, i32 46, i32 0
  %switch.select2.i84 = select i1 %.not86, i32 -2147483644, i32 %switch.select.i82
  %64 = call ptr @proto_tree_add_item(ptr noundef %2, i32 noundef %63, ptr noundef nonnull %0, i32 noundef %56, i32 noundef %62, i32 noundef %switch.select2.i84)
  %65 = load i32, ptr %7, align 4
  %66 = add i32 %65, %56
  br label %67

67:                                               ; preds = %61, %53
  %.1 = phi i32 [ %66, %61 ], [ %56, %53 ]
  %68 = load i32, ptr @tds_protocol_type, align 4
  %69 = icmp eq i32 %68, 65535
  br i1 %69, label %70, label %74

70:                                               ; preds = %67
  %71 = getelementptr inbounds nuw i8, ptr %3, i64 8
  %72 = load i32, ptr %71, align 8
  %73 = icmp slt i32 %72, 28929
  br i1 %73, label %76, label %81

74:                                               ; preds = %67
  %75 = icmp slt i32 %68, 28929
  br i1 %75, label %76, label %81

76:                                               ; preds = %74, %70
  %77 = load i32, ptr @hf_tds_info_linenumber_16, align 4
  %.val = load i32, ptr %9, align 4
  %78 = icmp eq i32 %.val, 2
  %79 = select i1 %78, i32 0, i32 -2147483648
  %80 = call ptr @proto_tree_add_item(ptr noundef %2, i32 noundef %77, ptr noundef nonnull %0, i32 noundef %.1, i32 noundef 2, i32 noundef %79)
  br label %86

81:                                               ; preds = %74, %70
  %82 = load i32, ptr @hf_tds_info_linenumber_32, align 4
  %.val69 = load i32, ptr %15, align 8
  %83 = icmp eq i32 %.val69, 0
  %84 = select i1 %83, i32 0, i32 -2147483648
  %85 = call ptr @proto_tree_add_item(ptr noundef %2, i32 noundef %82, ptr noundef nonnull %0, i32 noundef %.1, i32 noundef 4, i32 noundef %84)
  br label %86

86:                                               ; preds = %81, %76
  %.sink = phi i32 [ 4, %81 ], [ 2, %76 ]
  %87 = add i32 %.1, %.sink
  %88 = sub i32 %87, %1
  call void @llvm.lifetime.end.p0(i64 4, ptr nonnull %7) #13
  call void @llvm.lifetime.end.p0(i64 4, ptr nonnull %6) #13
  call void @llvm.lifetime.end.p0(i64 4, ptr nonnull %5) #13
  ret i32 %88
}